target datalayout = "e-m:e-p270:32:32-p271:32:32-p272:64:64-i64:64-i128:128-f80:128-n8:16:32:64-S128"
target triple = "x86_64-unknown-linux-gnu"

%"struct.re2::PatchList" = type { i32, i32 }
%"class.re2::Compiler" = type <{ %"class.re2::Regexp::Walker", ptr, i8, [3 x i8], i32, i8, [7 x i8], %"class.re2::PODArray", i32, i32, i64, %"class.absl::debian2::flat_hash_map", %"struct.re2::Frag", i32, [4 x i8] }>
%"class.re2::Regexp::Walker" = type { ptr, %"class.std::stack", i8, i32 }
%"class.std::stack" = type { %"class.std::deque" }
%"class.std::deque" = type { %"class.std::_Deque_base" }
%"class.std::_Deque_base" = type { %"struct.std::_Deque_base<re2::WalkState<re2::Frag>, std::allocator<re2::WalkState<re2::Frag>>>::_Deque_impl" }
%"struct.std::_Deque_base<re2::WalkState<re2::Frag>, std::allocator<re2::WalkState<re2::Frag>>>::_Deque_impl" = type { %"struct.std::_Deque_base<re2::WalkState<re2::Frag>, std::allocator<re2::WalkState<re2::Frag>>>::_Deque_impl_data" }
%"struct.std::_Deque_base<re2::WalkState<re2::Frag>, std::allocator<re2::WalkState<re2::Frag>>>::_Deque_impl_data" = type { ptr, i64, %"struct.std::_Deque_iterator", %"struct.std::_Deque_iterator" }
%"struct.std::_Deque_iterator" = type { ptr, ptr, ptr, ptr }
%"class.re2::PODArray" = type { %"class.std::unique_ptr" }
%"class.std::unique_ptr" = type { %"struct.std::__uniq_ptr_data" }
%"struct.std::__uniq_ptr_data" = type { %"class.std::__uniq_ptr_impl" }
%"class.std::__uniq_ptr_impl" = type { %"class.std::tuple" }
%"class.std::tuple" = type { %"struct.std::_Tuple_impl" }
%"struct.std::_Tuple_impl" = type { %"struct.std::_Tuple_impl.0", %"struct.std::_Head_base.1" }
%"struct.std::_Tuple_impl.0" = type { %"struct.std::_Head_base" }
%"struct.std::_Head_base" = type { %"struct.re2::PODArray<re2::Prog::Inst>::Deleter" }
%"struct.re2::PODArray<re2::Prog::Inst>::Deleter" = type { i32 }
%"struct.std::_Head_base.1" = type { ptr }
%"class.absl::debian2::flat_hash_map" = type { %"class.absl::debian2::container_internal::raw_hash_map" }
%"class.absl::debian2::container_internal::raw_hash_map" = type { %"class.absl::debian2::container_internal::raw_hash_set" }
%"class.absl::debian2::container_internal::raw_hash_set" = type { ptr, ptr, i64, i64, %"class.absl::debian2::container_internal::CompressedTuple" }
%"class.absl::debian2::container_internal::CompressedTuple" = type { %"struct.absl::debian2::container_internal::internal_compressed_tuple::CompressedTupleImpl" }
%"struct.absl::debian2::container_internal::internal_compressed_tuple::CompressedTupleImpl" = type { %"struct.absl::debian2::container_internal::internal_compressed_tuple::Storage" }
%"struct.absl::debian2::container_internal::internal_compressed_tuple::Storage" = type { i64 }
%"struct.re2::Frag" = type <{ i32, %"struct.re2::PatchList", i8, [3 x i8] }>
%"class.re2::Prog::Inst" = type { i32, %union.anon.27 }
%union.anon.27 = type { i32 }

; Function Attrs: mustprogress nounwind uwtable
define linkonce_odr noundef nonnull align 8 dereferenceable(8) ptr @_ZNSt10_Head_baseILm0EPN3re24Prog4InstELb0EE7_M_headERKS4_(ptr noundef nonnull align 8 dereferenceable(8) %__b) #1 comdat align 2 {
entry:
  %__b.addr = alloca ptr, align 8
  store ptr %__b, ptr %__b.addr, align 8
  %0 = load ptr, ptr %__b.addr, align 8
  %_M_head_impl = getelementptr inbounds %"struct.std::_Head_base.1", ptr %0, i32 0, i32 0
  ret ptr %_M_head_impl
}

; Function Attrs: mustprogress nounwind uwtable
define linkonce_odr noundef nonnull align 8 dereferenceable(8) ptr @_ZNSt11_Tuple_implILm0EJPN3re24Prog4InstENS0_8PODArrayIS2_E7DeleterEEE7_M_headERKS7_(ptr noundef nonnull align 8 dereferenceable(16) %__t) #1 comdat align 2 {
entry:
  %__t.addr = alloca ptr, align 8
  store ptr %__t, ptr %__t.addr, align 8
  %0 = load ptr, ptr %__t.addr, align 8
  %add.ptr = getelementptr inbounds i8, ptr %0, i64 8
  %call = call noundef nonnull align 8 dereferenceable(8) ptr @_ZNSt10_Head_baseILm0EPN3re24Prog4InstELb0EE7_M_headERKS4_(ptr noundef nonnull align 8 dereferenceable(8) %add.ptr) #17
  ret ptr %call
}

; Function Attrs: mustprogress nounwind uwtable
define linkonce_odr noundef nonnull align 8 dereferenceable(8) ptr @_ZSt12__get_helperILm0EPN3re24Prog4InstEJNS0_8PODArrayIS2_E7DeleterEEERKT0_RKSt11_Tuple_implIXT_EJS7_DpT1_EE(ptr noundef nonnull align 8 dereferenceable(16) %__t) #1 comdat {
entry:
  %__t.addr = alloca ptr, align 8
  store ptr %__t, ptr %__t.addr, align 8
  %0 = load ptr, ptr %__t.addr, align 8
  %call = call noundef nonnull align 8 dereferenceable(8) ptr @_ZNSt11_Tuple_implILm0EJPN3re24Prog4InstENS0_8PODArrayIS2_E7DeleterEEE7_M_headERKS7_(ptr noundef nonnull align 8 dereferenceable(16) %0) #17
  ret ptr %call
}

; Function Attrs: mustprogress nounwind uwtable
define linkonce_odr noundef nonnull align 8 dereferenceable(8) ptr @_ZSt3getILm0EJPN3re24Prog4InstENS0_8PODArrayIS2_E7DeleterEEERKNSt13tuple_elementIXT_ESt5tupleIJDpT0_EEE4typeERKSB_(ptr noundef nonnull align 8 dereferenceable(16) %__t) #1 comdat {
entry:
  %__t.addr = alloca ptr, align 8
  store ptr %__t, ptr %__t.addr, align 8
  %0 = load ptr, ptr %__t.addr, align 8
  %call = call noundef nonnull align 8 dereferenceable(8) ptr @_ZSt12__get_helperILm0EPN3re24Prog4InstEJNS0_8PODArrayIS2_E7DeleterEEERKT0_RKSt11_Tuple_implIXT_EJS7_DpT1_EE(ptr noundef nonnull align 8 dereferenceable(16) %0) #17
  ret ptr %call
}

; Function Attrs: mustprogress nounwind uwtable
define linkonce_odr noundef ptr @_ZNKSt15__uniq_ptr_implIN3re24Prog4InstENS0_8PODArrayIS2_E7DeleterEE6_M_ptrEv(ptr noundef nonnull align 8 dereferenceable(16) %this) #1 comdat align 2 {
entry:
  %this.addr = alloca ptr, align 8
  store ptr %this, ptr %this.addr, align 8
  %this1 = load ptr, ptr %this.addr, align 8
  %_M_t = getelementptr inbounds %"class.std::__uniq_ptr_impl", ptr %this1, i32 0, i32 0
  %call = call noundef nonnull align 8 dereferenceable(8) ptr @_ZSt3getILm0EJPN3re24Prog4InstENS0_8PODArrayIS2_E7DeleterEEERKNSt13tuple_elementIXT_ESt5tupleIJDpT0_EEE4typeERKSB_(ptr noundef nonnull align 8 dereferenceable(16) %_M_t) #17
  %0 = load ptr, ptr %call, align 8
  ret ptr %0
}

; Function Attrs: mustprogress nounwind uwtable
define linkonce_odr noundef ptr @_ZNKSt10unique_ptrIA_N3re24Prog4InstENS0_8PODArrayIS2_E7DeleterEE3getEv(ptr noundef nonnull align 8 dereferenceable(16) %this) #1 comdat align 2 {
entry:
  %this.addr = alloca ptr, align 8
  store ptr %this, ptr %this.addr, align 8
  %this1 = load ptr, ptr %this.addr, align 8
  %_M_t = getelementptr inbounds %"class.std::unique_ptr", ptr %this1, i32 0, i32 0
  %call = call noundef ptr @_ZNKSt15__uniq_ptr_implIN3re24Prog4InstENS0_8PODArrayIS2_E7DeleterEE6_M_ptrEv(ptr noundef nonnull align 8 dereferenceable(16) %_M_t) #17
  ret ptr %call
}

; Function Attrs: mustprogress nounwind uwtable
define linkonce_odr noundef nonnull align 4 dereferenceable(8) ptr @_ZNKSt10unique_ptrIA_N3re24Prog4InstENS0_8PODArrayIS2_E7DeleterEEixEm(ptr noundef nonnull align 8 dereferenceable(16) %this, i64 noundef %__i) #1 comdat align 2 {
entry:
  %this.addr = alloca ptr, align 8
  %__i.addr = alloca i64, align 8
  store ptr %this, ptr %this.addr, align 8
  store i64 %__i, ptr %__i.addr, align 8
  %this1 = load ptr, ptr %this.addr, align 8
  br label %do.body

do.body:                                          ; preds = %entry
  br label %do.end

do.end:                                           ; preds = %do.body
  %call = call noundef ptr @_ZNKSt10unique_ptrIA_N3re24Prog4InstENS0_8PODArrayIS2_E7DeleterEE3getEv(ptr noundef nonnull align 8 dereferenceable(16) %this1) #17
  %0 = load i64, ptr %__i.addr, align 8
  %arrayidx = getelementptr inbounds %"class.re2::Prog::Inst", ptr %call, i64 %0
  ret ptr %arrayidx
}

; Function Attrs: mustprogress uwtable
define linkonce_odr noundef nonnull align 4 dereferenceable(8) ptr @_ZNK3re28PODArrayINS_4Prog4InstEEixEi(ptr noundef nonnull align 8 dereferenceable(16) %this, i32 noundef %pos) #0 comdat align 2 {
entry:
  %this.addr = alloca ptr, align 8
  %pos.addr = alloca i32, align 4
  store ptr %this, ptr %this.addr, align 8
  store i32 %pos, ptr %pos.addr, align 4
  %this1 = load ptr, ptr %this.addr, align 8
  %ptr_ = getelementptr inbounds %"class.re2::PODArray", ptr %this1, i32 0, i32 0
  %0 = load i32, ptr %pos.addr, align 4
  %conv = sext i32 %0 to i64
  %call = call noundef nonnull align 4 dereferenceable(8) ptr @_ZNKSt10unique_ptrIA_N3re24Prog4InstENS0_8PODArrayIS2_E7DeleterEEixEm(ptr noundef nonnull align 8 dereferenceable(16) %ptr_, i64 noundef %conv)
  ret ptr %call
}

; Function Attrs: mustprogress uwtable
define void @_ZN3re28Compiler9AddSuffixEi(ptr noundef nonnull align 8 dereferenceable(212) %this, i32 noundef %id) #0 align 2 {
entry:
  %this.addr = alloca ptr, align 8
  %id.addr = alloca i32, align 4
  %alt = alloca i32, align 4
  store ptr %this, ptr %this.addr, align 8
  store i32 %id, ptr %id.addr, align 4
  %this1 = load ptr, ptr %this.addr, align 8
  %failed_ = getelementptr inbounds %"class.re2::Compiler", ptr %this1, i32 0, i32 2
  %0 = load i8, ptr %failed_, align 8
  %tobool = trunc i8 %0 to i1
  br i1 %tobool, label %if.then, label %if.end

if.then:                                          ; preds = %entry
  br label %return

if.end:                                           ; preds = %entry
  %rune_range_ = getelementptr inbounds %"class.re2::Compiler", ptr %this1, i32 0, i32 12
  %begin = getelementptr inbounds %"struct.re2::Frag", ptr %rune_range_, i32 0, i32 0
  %1 = load i32, ptr %begin, align 8
  %cmp = icmp eq i32 %1, 0
  br i1 %cmp, label %if.then2, label %if.end5

if.then2:                                         ; preds = %if.end
  %2 = load i32, ptr %id.addr, align 4
  %rune_range_3 = getelementptr inbounds %"class.re2::Compiler", ptr %this1, i32 0, i32 12
  %begin4 = getelementptr inbounds %"struct.re2::Frag", ptr %rune_range_3, i32 0, i32 0
  store i32 %2, ptr %begin4, align 8
  br label %return

if.end5:                                          ; preds = %if.end
  %encoding_ = getelementptr inbounds %"class.re2::Compiler", ptr %this1, i32 0, i32 4
  %3 = load i32, ptr %encoding_, align 4
  %cmp6 = icmp eq i32 %3, 1
  br i1 %cmp6, label %if.then7, label %if.end12

if.then7:                                         ; preds = %if.end5
  %rune_range_8 = getelementptr inbounds %"class.re2::Compiler", ptr %this1, i32 0, i32 12
  %begin9 = getelementptr inbounds %"struct.re2::Frag", ptr %rune_range_8, i32 0, i32 0
  %4 = load i32, ptr %begin9, align 8
  %5 = load i32, ptr %id.addr, align 4
  %call = call noundef i32 @_ZN3re28Compiler18AddSuffixRecursiveEii(ptr noundef nonnull align 8 dereferenceable(212) %this1, i32 noundef %4, i32 noundef %5)
  %rune_range_10 = getelementptr inbounds %"class.re2::Compiler", ptr %this1, i32 0, i32 12
  %begin11 = getelementptr inbounds %"struct.re2::Frag", ptr %rune_range_10, i32 0, i32 0
  store i32 %call, ptr %begin11, align 8
  br label %return

if.end12:                                         ; preds = %if.end5
  %call13 = call noundef i32 @_ZN3re28Compiler9AllocInstEi(ptr noundef nonnull align 8 dereferenceable(212) %this1, i32 noundef 1)
  store i32 %call13, ptr %alt, align 4
  %6 = load i32, ptr %alt, align 4
  %cmp14 = icmp slt i32 %6, 0
  br i1 %cmp14, label %if.then15, label %if.end18

if.then15:                                        ; preds = %if.end12
  %rune_range_16 = getelementptr inbounds %"class.re2::Compiler", ptr %this1, i32 0, i32 12
  %begin17 = getelementptr inbounds %"struct.re2::Frag", ptr %rune_range_16, i32 0, i32 0
  store i32 0, ptr %begin17, align 8
  br label %return

if.end18:                                         ; preds = %if.end12
  %inst_ = getelementptr inbounds %"class.re2::Compiler", ptr %this1, i32 0, i32 7
  %7 = load i32, ptr %alt, align 4
  %call19 = call noundef nonnull align 4 dereferenceable(8) ptr @_ZNK3re28PODArrayINS_4Prog4InstEEixEi(ptr noundef nonnull align 8 dereferenceable(16) %inst_, i32 noundef %7)
  %rune_range_20 = getelementptr inbounds %"class.re2::Compiler", ptr %this1, i32 0, i32 12
  %begin21 = getelementptr inbounds %"struct.re2::Frag", ptr %rune_range_20, i32 0, i32 0
  %8 = load i32, ptr %begin21, align 8
  %9 = load i32, ptr %id.addr, align 4
  call void @_ZN3re24Prog4Inst7InitAltEjj(ptr noundef nonnull align 4 dereferenceable(8) %call19, i32 noundef %8, i32 noundef %9)
  %10 = load i32, ptr %alt, align 4
  %rune_range_22 = getelementptr inbounds %"class.re2::Compiler", ptr %this1, i32 0, i32 12
  %begin23 = getelementptr inbounds %"struct.re2::Frag", ptr %rune_range_22, i32 0, i32 0
  store i32 %10, ptr %begin23, align 8
  br label %return

return:                                           ; preds = %if.end18, %if.then15, %if.then7, %if.then2, %if.then
  ret void
}

; Function Attrs: mustprogress uwtable
define void @_ZN3re28Compiler18AddRuneRangeLatin1Eiib(ptr noundef nonnull align 8 dereferenceable(212) %this, i32 noundef %lo, i32 noundef %hi, i1 noundef zeroext %foldcase) #0 align 2 {
entry:
  %this.addr = alloca ptr, align 8
  %lo.addr = alloca i32, align 4
  %hi.addr = alloca i32, align 4
  %foldcase.addr = alloca i8, align 1
  store ptr %this, ptr %this.addr, align 8
  store i32 %lo, ptr %lo.addr, align 4
  store i32 %hi, ptr %hi.addr, align 4
  %frombool = zext i1 %foldcase to i8
  store i8 %frombool, ptr %foldcase.addr, align 1
  %this1 = load ptr, ptr %this.addr, align 8
  %0 = load i32, ptr %lo.addr, align 4
  %1 = load i32, ptr %hi.addr, align 4
  %cmp = icmp sgt i32 %0, %1
  br i1 %cmp, label %if.then, label %lor.lhs.false

lor.lhs.false:                                    ; preds = %entry
  %2 = load i32, ptr %lo.addr, align 4
  %cmp2 = icmp sgt i32 %2, 255
  br i1 %cmp2, label %if.then, label %if.end

if.then:                                          ; preds = %lor.lhs.false, %entry
  br label %return

if.end:                                           ; preds = %lor.lhs.false
  %3 = load i32, ptr %hi.addr, align 4
  %cmp3 = icmp sgt i32 %3, 255
  br i1 %cmp3, label %if.then4, label %if.end5

if.then4:                                         ; preds = %if.end
  store i32 255, ptr %hi.addr, align 4
  br label %if.end5

if.end5:                                          ; preds = %if.then4, %if.end
  %4 = load i32, ptr %lo.addr, align 4
  %conv = trunc i32 %4 to i8
  %5 = load i32, ptr %hi.addr, align 4
  %conv6 = trunc i32 %5 to i8
  %6 = load i8, ptr %foldcase.addr, align 1
  %tobool = trunc i8 %6 to i1
  %call = call noundef i32 @_ZN3re28Compiler22UncachedRuneByteSuffixEhhbi(ptr noundef nonnull align 8 dereferenceable(212) %this1, i8 noundef zeroext %conv, i8 noundef zeroext %conv6, i1 noundef zeroext %tobool, i32 noundef 0)
  call void @_ZN3re28Compiler9AddSuffixEi(ptr noundef nonnull align 8 dereferenceable(212) %this1, i32 noundef %call)
  br label %return

return:                                           ; preds = %if.end5, %if.then
  ret void
}

; Function Attrs: mustprogress uwtable
define void @_ZN3re28Compiler12AddRuneRangeEiib(ptr noundef nonnull align 8 dereferenceable(212) %this, i32 noundef %lo, i32 noundef %hi, i1 noundef zeroext %foldcase) #0 align 2 {
entry:
  %this.addr = alloca ptr, align 8
  %lo.addr = alloca i32, align 4
  %hi.addr = alloca i32, align 4
  %foldcase.addr = alloca i8, align 1
  store ptr %this, ptr %this.addr, align 8
  store i32 %lo, ptr %lo.addr, align 4
  store i32 %hi, ptr %hi.addr, align 4
  %frombool = zext i1 %foldcase to i8
  store i8 %frombool, ptr %foldcase.addr, align 1
  %this1 = load ptr, ptr %this.addr, align 8
  %encoding_ = getelementptr inbounds %"class.re2::Compiler", ptr %this1, i32 0, i32 4
  %0 = load i32, ptr %encoding_, align 4
  switch i32 %0, label %sw.default [
    i32 1, label %sw.bb
    i32 2, label %sw.bb2
  ]

sw.default:                                       ; preds = %entry
  br label %sw.bb

sw.bb:                                            ; preds = %sw.default, %entry
  %1 = load i32, ptr %lo.addr, align 4
  %2 = load i32, ptr %hi.addr, align 4
  %3 = load i8, ptr %foldcase.addr, align 1
  %tobool = trunc i8 %3 to i1
  call void @_ZN3re28Compiler16AddRuneRangeUTF8Eiib(ptr noundef nonnull align 8 dereferenceable(212) %this1, i32 noundef %1, i32 noundef %2, i1 noundef zeroext %tobool)
  br label %sw.epilog

sw.bb2:                                           ; preds = %entry
  %4 = load i32, ptr %lo.addr, align 4
  %5 = load i32, ptr %hi.addr, align 4
  %6 = load i8, ptr %foldcase.addr, align 1
  %tobool3 = trunc i8 %6 to i1
  call void @_ZN3re28Compiler18AddRuneRangeLatin1Eiib(ptr noundef nonnull align 8 dereferenceable(212) %this1, i32 noundef %4, i32 noundef %5, i1 noundef zeroext %tobool3)
  br label %sw.epilog

sw.epilog:                                        ; preds = %sw.bb2, %sw.bb
  ret void
}