; Function Attrs: mustprogress uwtable
define void @_ZN3re28Compiler12AddRuneRangeEiib(ptr noundef nonnull align 8 dereferenceable(212) %this, i32 noundef %lo, i32 noundef %hi, i1 noundef zeroext %foldcase) local_unnamed_addr #0 align 2 {
entry:
  %encoding_ = getelementptr inbounds i8, ptr %this, i64 108
  %0 = load i32, ptr %encoding_, align 4
  %cond = icmp eq i32 %0, 2
  br i1 %cond, label %sw.bb2, label %sw.bb

sw.bb:                                            ; preds = %entry
  tail call void @_ZN3re28Compiler16AddRuneRangeUTF8Eiib(ptr noundef nonnull align 8 dereferenceable(212) %this, i32 noundef %lo, i32 noundef %hi, i1 noundef zeroext %foldcase)
  br label %sw.epilog

sw.bb2:                                           ; preds = %entry
  %cmp.i = icmp sgt i32 %lo, %hi
  %cmp2.i = icmp sgt i32 %lo, 255
  %or.cond.i = or i1 %cmp2.i, %cmp.i
  br i1 %or.cond.i, label %sw.epilog, label %if.end.i

if.end.i:                                         ; preds = %sw.bb2
  %spec.store.select.i = tail call i32 @llvm.smin.i32(i32 %hi, i32 255)
  %conv.i = trunc i32 %lo to i8
  %conv6.i = trunc i32 %spec.store.select.i to i8
  %call.i = tail call noundef i32 @_ZN3re28Compiler22UncachedRuneByteSuffixEhhbi(ptr noundef nonnull align 8 dereferenceable(212) %this, i8 noundef zeroext %conv.i, i8 noundef zeroext %conv6.i, i1 noundef zeroext %foldcase, i32 noundef 0)
  %failed_.i.i = getelementptr inbounds i8, ptr %this, i64 104
  %1 = load i8, ptr %failed_.i.i, align 8
  %2 = and i8 %1, 1
  %tobool.not.i.i = icmp eq i8 %2, 0
  br i1 %tobool.not.i.i, label %if.end.i.i, label %sw.epilog

if.end.i.i:                                       ; preds = %if.end.i
  %rune_range_.i.i = getelementptr inbounds i8, ptr %this, i64 192
  %3 = load i32, ptr %rune_range_.i.i, align 8
  %cmp.i.i = icmp eq i32 %3, 0
  br i1 %cmp.i.i, label %return.sink.split.i.i, label %if.end5.i.i

if.end5.i.i:                                      ; preds = %if.end.i.i
  %4 = load i32, ptr %encoding_, align 4
  %cmp6.i.i = icmp eq i32 %4, 1
  br i1 %cmp6.i.i, label %if.then7.i.i, label %if.end12.i.i

if.then7.i.i:                                     ; preds = %if.end5.i.i
  %call.i.i = tail call noundef i32 @_ZN3re28Compiler18AddSuffixRecursiveEii(ptr noundef nonnull align 8 dereferenceable(212) %this, i32 noundef %3, i32 noundef %call.i)
  br label %return.sink.split.i.i

if.end12.i.i:                                     ; preds = %if.end5.i.i
  %call13.i.i = tail call noundef i32 @_ZN3re28Compiler9AllocInstEi(ptr noundef nonnull align 8 dereferenceable(212) %this, i32 noundef 1)
  %cmp14.i.i = icmp slt i32 %call13.i.i, 0
  br i1 %cmp14.i.i, label %return.sink.split.i.i, label %if.end18.i.i

if.end18.i.i:                                     ; preds = %if.end12.i.i
  %conv.i.i.i = zext nneg i32 %call13.i.i to i64
  %add.ptr.i.i.i.i.i.i.i.i.i = getelementptr inbounds i8, ptr %this, i64 128
  %5 = load ptr, ptr %add.ptr.i.i.i.i.i.i.i.i.i, align 8
  %arrayidx.i.i.i.i = getelementptr inbounds %"class.re2::Prog::Inst", ptr %5, i64 %conv.i.i.i
  %6 = load i32, ptr %rune_range_.i.i, align 8
  tail call void @_ZN3re24Prog4Inst7InitAltEjj(ptr noundef nonnull align 4 dereferenceable(8) %arrayidx.i.i.i.i, i32 noundef %6, i32 noundef %call.i)
  br label %return.sink.split.i.i

return.sink.split.i.i:                            ; preds = %if.end18.i.i, %if.end12.i.i, %if.then7.i.i, %if.end.i.i
  %call13.sink.i.i = phi i32 [ %call13.i.i, %if.end18.i.i ], [ %call.i.i, %if.then7.i.i ], [ %call.i, %if.end.i.i ], [ 0, %if.end12.i.i ]
  store i32 %call13.sink.i.i, ptr %rune_range_.i.i, align 8
  br label %sw.epilog

sw.epilog:                                        ; preds = %return.sink.split.i.i, %if.end.i, %sw.bb2, %sw.bb
  ret void
}